target datalayout = "e-m:e-p270:32:32-p271:32:32-p272:64:64-i64:64-i128:128-f80:128-n8:16:32:64-S128"
target triple = "x86_64-pc-linux-gnu"

%"struct.duckdb::hugeint_t" = type { i64, i64 }

; Function Attrs: mustprogress uwtable
define { i64, i64 } @_ZN6duckdb13RoundToNumberENS_9hugeint_tES0_NS_12NiceRoundingE(i64 %0, i64 %1, i64 %2, i64 %3, i32 noundef %4) #0 {
  %6 = alloca %"struct.duckdb::hugeint_t", align 8
  %7 = alloca %"struct.duckdb::hugeint_t", align 8
  %8 = alloca %"struct.duckdb::hugeint_t", align 8
  %9 = alloca i32, align 4
  %10 = alloca %"struct.duckdb::hugeint_t", align 8
  %11 = alloca %"struct.duckdb::hugeint_t", align 8
  %12 = alloca %"struct.duckdb::hugeint_t", align 8
  %13 = alloca %"struct.duckdb::hugeint_t", align 8
  %14 = alloca %"struct.duckdb::hugeint_t", align 8
  %15 = alloca %"struct.duckdb::hugeint_t", align 8
  %16 = alloca %"struct.duckdb::hugeint_t", align 8
  %17 = alloca %"struct.duckdb::hugeint_t", align 8
  %18 = getelementptr inbounds nuw { i64, i64 }, ptr %7, i32 0, i32 0
  store i64 %0, ptr %18, align 8
  %19 = getelementptr inbounds nuw { i64, i64 }, ptr %7, i32 0, i32 1
  store i64 %1, ptr %19, align 8
  %20 = getelementptr inbounds nuw { i64, i64 }, ptr %8, i32 0, i32 0
  store i64 %2, ptr %20, align 8
  %21 = getelementptr inbounds nuw { i64, i64 }, ptr %8, i32 0, i32 1
  store i64 %3, ptr %21, align 8
  store i32 %4, ptr %9, align 4, !tbaa !98
  %22 = load i32, ptr %9, align 4, !tbaa !98
  %23 = icmp eq i32 %22, 1
  br i1 %23, label %24, label %45

24:                                               ; preds = %5
  call void @llvm.lifetime.start.p0(i64 16, ptr %10) #8
  call void @llvm.lifetime.start.p0(i64 16, ptr %11) #8
  call void @llvm.lifetime.start.p0(i64 16, ptr %12) #8
  call void @llvm.lifetime.start.p0(i64 16, ptr %13) #8
  call void @_ZN6duckdb9hugeint_tC1El(ptr noundef nonnull align 8 dereferenceable(16) %13, i64 noundef 2)
  %25 = call { i64, i64 } @_ZNK6duckdb9hugeint_tdvERKS0_(ptr noundef nonnull align 8 dereferenceable(16) %8, ptr noundef nonnull align 8 dereferenceable(16) %13)
  %26 = getelementptr inbounds nuw { i64, i64 }, ptr %12, i32 0, i32 0
  %27 = extractvalue { i64, i64 } %25, 0
  store i64 %27, ptr %26, align 8
  %28 = getelementptr inbounds nuw { i64, i64 }, ptr %12, i32 0, i32 1
  %29 = extractvalue { i64, i64 } %25, 1
  store i64 %29, ptr %28, align 8
  %30 = call { i64, i64 } @_ZNK6duckdb9hugeint_tplERKS0_(ptr noundef nonnull align 8 dereferenceable(16) %7, ptr noundef nonnull align 8 dereferenceable(16) %12)
  %31 = getelementptr inbounds nuw { i64, i64 }, ptr %11, i32 0, i32 0
  %32 = extractvalue { i64, i64 } %30, 0
  store i64 %32, ptr %31, align 8
  %33 = getelementptr inbounds nuw { i64, i64 }, ptr %11, i32 0, i32 1
  %34 = extractvalue { i64, i64 } %30, 1
  store i64 %34, ptr %33, align 8
  %35 = call { i64, i64 } @_ZNK6duckdb9hugeint_tdvERKS0_(ptr noundef nonnull align 8 dereferenceable(16) %11, ptr noundef nonnull align 8 dereferenceable(16) %8)
  %36 = getelementptr inbounds nuw { i64, i64 }, ptr %10, i32 0, i32 0
  %37 = extractvalue { i64, i64 } %35, 0
  store i64 %37, ptr %36, align 8
  %38 = getelementptr inbounds nuw { i64, i64 }, ptr %10, i32 0, i32 1
  %39 = extractvalue { i64, i64 } %35, 1
  store i64 %39, ptr %38, align 8
  %40 = call { i64, i64 } @_ZNK6duckdb9hugeint_tmlERKS0_(ptr noundef nonnull align 8 dereferenceable(16) %10, ptr noundef nonnull align 8 dereferenceable(16) %8)
  %41 = getelementptr inbounds nuw { i64, i64 }, ptr %6, i32 0, i32 0
  %42 = extractvalue { i64, i64 } %40, 0
  store i64 %42, ptr %41, align 8
  %43 = getelementptr inbounds nuw { i64, i64 }, ptr %6, i32 0, i32 1
  %44 = extractvalue { i64, i64 } %40, 1
  store i64 %44, ptr %43, align 8
  call void @llvm.lifetime.end.p0(i64 16, ptr %13) #8
  call void @llvm.lifetime.end.p0(i64 16, ptr %12) #8
  call void @llvm.lifetime.end.p0(i64 16, ptr %11) #8
  call void @llvm.lifetime.end.p0(i64 16, ptr %10) #8
  br label %66

45:                                               ; preds = %5
  call void @llvm.lifetime.start.p0(i64 16, ptr %14) #8
  call void @llvm.lifetime.start.p0(i64 16, ptr %15) #8
  call void @llvm.lifetime.start.p0(i64 16, ptr %16) #8
  call void @llvm.lifetime.start.p0(i64 16, ptr %17) #8
  call void @_ZN6duckdb9hugeint_tC1El(ptr noundef nonnull align 8 dereferenceable(16) %17, i64 noundef 1)
  %46 = call { i64, i64 } @_ZNK6duckdb9hugeint_tmiERKS0_(ptr noundef nonnull align 8 dereferenceable(16) %8, ptr noundef nonnull align 8 dereferenceable(16) %17)
  %47 = getelementptr inbounds nuw { i64, i64 }, ptr %16, i32 0, i32 0
  %48 = extractvalue { i64, i64 } %46, 0
  store i64 %48, ptr %47, align 8
  %49 = getelementptr inbounds nuw { i64, i64 }, ptr %16, i32 0, i32 1
  %50 = extractvalue { i64, i64 } %46, 1
  store i64 %50, ptr %49, align 8
  %51 = call { i64, i64 } @_ZNK6duckdb9hugeint_tplERKS0_(ptr noundef nonnull align 8 dereferenceable(16) %7, ptr noundef nonnull align 8 dereferenceable(16) %16)
  %52 = getelementptr inbounds nuw { i64, i64 }, ptr %15, i32 0, i32 0
  %53 = extractvalue { i64, i64 } %51, 0
  store i64 %53, ptr %52, align 8
  %54 = getelementptr inbounds nuw { i64, i64 }, ptr %15, i32 0, i32 1
  %55 = extractvalue { i64, i64 } %51, 1
  store i64 %55, ptr %54, align 8
  %56 = call { i64, i64 } @_ZNK6duckdb9hugeint_tdvERKS0_(ptr noundef nonnull align 8 dereferenceable(16) %15, ptr noundef nonnull align 8 dereferenceable(16) %8)
  %57 = getelementptr inbounds nuw { i64, i64 }, ptr %14, i32 0, i32 0
  %58 = extractvalue { i64, i64 } %56, 0
  store i64 %58, ptr %57, align 8
  %59 = getelementptr inbounds nuw { i64, i64 }, ptr %14, i32 0, i32 1
  %60 = extractvalue { i64, i64 } %56, 1
  store i64 %60, ptr %59, align 8
  %61 = call { i64, i64 } @_ZNK6duckdb9hugeint_tmlERKS0_(ptr noundef nonnull align 8 dereferenceable(16) %14, ptr noundef nonnull align 8 dereferenceable(16) %8)
  %62 = getelementptr inbounds nuw { i64, i64 }, ptr %6, i32 0, i32 0
  %63 = extractvalue { i64, i64 } %61, 0
  store i64 %63, ptr %62, align 8
  %64 = getelementptr inbounds nuw { i64, i64 }, ptr %6, i32 0, i32 1
  %65 = extractvalue { i64, i64 } %61, 1
  store i64 %65, ptr %64, align 8
  call void @llvm.lifetime.end.p0(i64 16, ptr %17) #8
  call void @llvm.lifetime.end.p0(i64 16, ptr %16) #8
  call void @llvm.lifetime.end.p0(i64 16, ptr %15) #8
  call void @llvm.lifetime.end.p0(i64 16, ptr %14) #8
  br label %66

66:                                               ; preds = %45, %24
  %67 = load { i64, i64 }, ptr %6, align 8
  ret { i64, i64 } %67
}