; Function Attrs: mustprogress uwtable
define { i64, i64 } @_ZN6duckdb13RoundToNumberENS_9hugeint_tES0_NS_12NiceRoundingE(i64 %0, i64 %1, i64 %2, i64 %3, i32 noundef %4) local_unnamed_addr #0 {
  %6 = alloca %"struct.duckdb::hugeint_t", align 8
  %7 = alloca %"struct.duckdb::hugeint_t", align 8
  %8 = alloca %"struct.duckdb::hugeint_t", align 8
  %9 = alloca %"struct.duckdb::hugeint_t", align 8
  %10 = alloca %"struct.duckdb::hugeint_t", align 8
  %11 = alloca %"struct.duckdb::hugeint_t", align 8
  %12 = alloca %"struct.duckdb::hugeint_t", align 8
  %13 = alloca %"struct.duckdb::hugeint_t", align 8
  %14 = alloca %"struct.duckdb::hugeint_t", align 8
  %15 = alloca %"struct.duckdb::hugeint_t", align 8
  store i64 %0, ptr %6, align 8
  %16 = getelementptr inbounds nuw i8, ptr %6, i64 8
  store i64 %1, ptr %16, align 8
  store i64 %2, ptr %7, align 8
  %17 = getelementptr inbounds nuw i8, ptr %7, i64 8
  store i64 %3, ptr %17, align 8
  %18 = icmp eq i32 %4, 1
  br i1 %18, label %19, label %33

19:                                               ; preds = %5
  call void @llvm.lifetime.start.p0(i64 16, ptr nonnull %8) #27
  call void @llvm.lifetime.start.p0(i64 16, ptr nonnull %9) #27
  call void @llvm.lifetime.start.p0(i64 16, ptr nonnull %10) #27
  call void @llvm.lifetime.start.p0(i64 16, ptr nonnull %11) #27
  call void @_ZN6duckdb9hugeint_tC1El(ptr noundef nonnull align 8 dereferenceable(16) %11, i64 noundef 2)
  %20 = call { i64, i64 } @_ZNK6duckdb9hugeint_tdvERKS0_(ptr noundef nonnull align 8 dereferenceable(16) %7, ptr noundef nonnull align 8 dereferenceable(16) %11)
  %21 = extractvalue { i64, i64 } %20, 0
  store i64 %21, ptr %10, align 8
  %22 = getelementptr inbounds nuw i8, ptr %10, i64 8
  %23 = extractvalue { i64, i64 } %20, 1
  store i64 %23, ptr %22, align 8
  %24 = call { i64, i64 } @_ZNK6duckdb9hugeint_tplERKS0_(ptr noundef nonnull align 8 dereferenceable(16) %6, ptr noundef nonnull align 8 dereferenceable(16) %10)
  %25 = extractvalue { i64, i64 } %24, 0
  store i64 %25, ptr %9, align 8
  %26 = getelementptr inbounds nuw i8, ptr %9, i64 8
  %27 = extractvalue { i64, i64 } %24, 1
  store i64 %27, ptr %26, align 8
  %28 = call { i64, i64 } @_ZNK6duckdb9hugeint_tdvERKS0_(ptr noundef nonnull align 8 dereferenceable(16) %9, ptr noundef nonnull align 8 dereferenceable(16) %7)
  %29 = extractvalue { i64, i64 } %28, 0
  store i64 %29, ptr %8, align 8
  %30 = getelementptr inbounds nuw i8, ptr %8, i64 8
  %31 = extractvalue { i64, i64 } %28, 1
  store i64 %31, ptr %30, align 8
  %32 = call { i64, i64 } @_ZNK6duckdb9hugeint_tmlERKS0_(ptr noundef nonnull align 8 dereferenceable(16) %8, ptr noundef nonnull align 8 dereferenceable(16) %7)
  call void @llvm.lifetime.end.p0(i64 16, ptr nonnull %11) #27
  call void @llvm.lifetime.end.p0(i64 16, ptr nonnull %10) #27
  call void @llvm.lifetime.end.p0(i64 16, ptr nonnull %9) #27
  call void @llvm.lifetime.end.p0(i64 16, ptr nonnull %8) #27
  br label %47

33:                                               ; preds = %5
  call void @llvm.lifetime.start.p0(i64 16, ptr nonnull %12) #27
  call void @llvm.lifetime.start.p0(i64 16, ptr nonnull %13) #27
  call void @llvm.lifetime.start.p0(i64 16, ptr nonnull %14) #27
  call void @llvm.lifetime.start.p0(i64 16, ptr nonnull %15) #27
  call void @_ZN6duckdb9hugeint_tC1El(ptr noundef nonnull align 8 dereferenceable(16) %15, i64 noundef 1)
  %34 = call { i64, i64 } @_ZNK6duckdb9hugeint_tmiERKS0_(ptr noundef nonnull align 8 dereferenceable(16) %7, ptr noundef nonnull align 8 dereferenceable(16) %15)
  %35 = extractvalue { i64, i64 } %34, 0
  store i64 %35, ptr %14, align 8
  %36 = getelementptr inbounds nuw i8, ptr %14, i64 8
  %37 = extractvalue { i64, i64 } %34, 1
  store i64 %37, ptr %36, align 8
  %38 = call { i64, i64 } @_ZNK6duckdb9hugeint_tplERKS0_(ptr noundef nonnull align 8 dereferenceable(16) %6, ptr noundef nonnull align 8 dereferenceable(16) %14)
  %39 = extractvalue { i64, i64 } %38, 0
  store i64 %39, ptr %13, align 8
  %40 = getelementptr inbounds nuw i8, ptr %13, i64 8
  %41 = extractvalue { i64, i64 } %38, 1
  store i64 %41, ptr %40, align 8
  %42 = call { i64, i64 } @_ZNK6duckdb9hugeint_tdvERKS0_(ptr noundef nonnull align 8 dereferenceable(16) %13, ptr noundef nonnull align 8 dereferenceable(16) %7)
  %43 = extractvalue { i64, i64 } %42, 0
  store i64 %43, ptr %12, align 8
  %44 = getelementptr inbounds nuw i8, ptr %12, i64 8
  %45 = extractvalue { i64, i64 } %42, 1
  store i64 %45, ptr %44, align 8
  %46 = call { i64, i64 } @_ZNK6duckdb9hugeint_tmlERKS0_(ptr noundef nonnull align 8 dereferenceable(16) %12, ptr noundef nonnull align 8 dereferenceable(16) %7)
  call void @llvm.lifetime.end.p0(i64 16, ptr nonnull %15) #27
  call void @llvm.lifetime.end.p0(i64 16, ptr nonnull %14) #27
  call void @llvm.lifetime.end.p0(i64 16, ptr nonnull %13) #27
  call void @llvm.lifetime.end.p0(i64 16, ptr nonnull %12) #27
  br label %47

47:                                               ; preds = %33, %19
  %.pn = phi { i64, i64 } [ %32, %19 ], [ %46, %33 ]
  ret { i64, i64 } %.pn
}